target datalayout = "e-m:e-p270:32:32-p271:32:32-p272:64:64-i64:64-i128:128-f80:128-n8:16:32:64-S128"
target triple = "x86_64-pc-linux-gnu"

%struct.RelationData = type { %struct.RelFileLocator, ptr, i32, i32, i8, i8, i8, i8, i8, i32, i32, i32, i32, ptr, ptr, i32, %struct.LockInfoData, ptr, ptr, ptr, ptr, ptr, i8, ptr, ptr, ptr, ptr, ptr, ptr, i32, ptr, i8, ptr, ptr, i32, i8, i32, ptr, i8, ptr, ptr, ptr, ptr, ptr, ptr, ptr, i32, ptr, ptr, ptr, ptr, ptr, ptr, ptr, ptr, ptr, ptr, ptr, ptr, ptr, ptr, ptr, ptr, ptr, ptr, ptr, i32, i8, ptr }
%struct.RelFileLocator = type { i32, i32, i32 }
%struct.LockInfoData = type { %struct.LockRelId }
%struct.LockRelId = type { i32, i32 }
%struct.FormData_pg_class = type { i32, %struct.nameData, i32, i32, i32, i32, i32, i32, i32, i32, float, i32, i32, i8, i8, i8, i8, i16, i16, i8, i8, i8, i8, i8, i8, i8, i8, i32, i32, i32 }
%struct.nameData = type { [64 x i8] }
%struct.IndexAmRoutine = type { i32, i16, i16, i16, i8, i8, i8, i8, i8, i8, i8, i8, i8, i8, i8, i8, i8, i8, i8, i8, i8, i32, ptr, ptr, ptr, ptr, ptr, ptr, ptr, ptr, ptr, ptr, ptr, ptr, ptr, ptr, ptr, ptr, ptr, ptr, ptr, ptr, ptr, ptr, ptr, ptr, ptr, ptr }
%struct.IndexScanDescData = type { ptr, ptr, ptr, i32, i32, ptr, ptr, i8, i8, i8, i8, i8, ptr, ptr, ptr, ptr, ptr, %struct.ItemPointerData, i8, ptr, i8, ptr, ptr, i8, ptr }
%struct.ItemPointerData = type { %struct.BlockIdData, i16 }
%struct.BlockIdData = type { i16, i16 }
%struct.TableAmRoutine = type { i32, ptr, ptr, ptr, ptr, ptr, ptr, ptr, ptr, ptr, ptr, ptr, ptr, ptr, ptr, ptr, ptr, ptr, ptr, ptr, ptr, ptr, ptr, ptr, ptr, ptr, ptr, ptr, ptr, ptr, ptr, ptr, ptr, ptr, ptr, ptr, ptr, ptr, ptr, ptr, ptr, ptr, ptr, ptr, ptr, ptr }
%struct.IndexFetchTableData = type { ptr }

@.str.1 = private unnamed_addr constant [10 x i8] c"indexam.c\00", align 1
@.str.2 = private unnamed_addr constant [44 x i8] c"function \22%s\22 is not defined for index \22%s\22\00", align 1
@.str.7 = private unnamed_addr constant [11 x i8] c"amrestrpos\00", align 1
@__func__.index_restrpos = private unnamed_addr constant [15 x i8] c"index_restrpos\00", align 1

; Function Attrs: inlinehint nounwind uwtable
define internal void @table_index_fetch_reset(ptr noundef %0) #3 {
  %2 = alloca ptr, align 8
  store ptr %0, ptr %2, align 8
  %3 = load ptr, ptr %2, align 8
  %4 = getelementptr inbounds nuw %struct.IndexFetchTableData, ptr %3, i32 0, i32 0
  %5 = load ptr, ptr %4, align 8
  %6 = getelementptr inbounds nuw %struct.RelationData, ptr %5, i32 0, i32 47
  %7 = load ptr, ptr %6, align 8
  %8 = getelementptr inbounds nuw %struct.TableAmRoutine, ptr %7, i32 0, i32 12
  %9 = load ptr, ptr %8, align 8
  %10 = load ptr, ptr %2, align 8
  call void %9(ptr noundef %10)
  ret void
}

; Function Attrs: nounwind uwtable
define dso_local void @index_restrpos(ptr noundef %0) #0 {
  %2 = alloca ptr, align 8
  store ptr %0, ptr %2, align 8
  br label %3

3:                                                ; preds = %1
  %4 = load ptr, ptr %2, align 8
  %5 = getelementptr inbounds nuw %struct.IndexScanDescData, ptr %4, i32 0, i32 1
  %6 = load ptr, ptr %5, align 8
  %7 = getelementptr inbounds nuw %struct.RelationData, ptr %6, i32 0, i32 51
  %8 = load ptr, ptr %7, align 8
  %9 = getelementptr inbounds nuw %struct.IndexAmRoutine, ptr %8, i32 0, i32 42
  %10 = load ptr, ptr %9, align 8
  %11 = icmp eq ptr %10, null
  br i1 %11, label %12, label %30

12:                                               ; preds = %3
  br label %13

13:                                               ; preds = %12
  br i1 true, label %14, label %16

14:                                               ; preds = %13
  %15 = call zeroext i1 @errstart_cold(i32 noundef 21, ptr noundef null) #8
  br i1 %15, label %18, label %28

16:                                               ; preds = %13
  %17 = call zeroext i1 @errstart(i32 noundef 21, ptr noundef null)
  br i1 %17, label %18, label %28

18:                                               ; preds = %16, %14
  %19 = load ptr, ptr %2, align 8
  %20 = getelementptr inbounds nuw %struct.IndexScanDescData, ptr %19, i32 0, i32 1
  %21 = load ptr, ptr %20, align 8
  %22 = getelementptr inbounds nuw %struct.RelationData, ptr %21, i32 0, i32 13
  %23 = load ptr, ptr %22, align 8
  %24 = getelementptr inbounds nuw %struct.FormData_pg_class, ptr %23, i32 0, i32 1
  %25 = getelementptr inbounds nuw %struct.nameData, ptr %24, i32 0, i32 0
  %26 = getelementptr inbounds [64 x i8], ptr %25, i64 0, i64 0
  %27 = call i32 (ptr, ...) @errmsg_internal(ptr noundef @.str.2, ptr noundef @.str.7, ptr noundef %26)
  call void @errfinish(ptr noundef @.str.1, i32 noundef 437, ptr noundef @__func__.index_restrpos)
  br label %28

28:                                               ; preds = %18, %16, %14
  unreachable

29:                                               ; No predecessors!
  br label %30

30:                                               ; preds = %29, %3
  br label %31

31:                                               ; preds = %30
  %32 = load ptr, ptr %2, align 8
  %33 = getelementptr inbounds nuw %struct.IndexScanDescData, ptr %32, i32 0, i32 19
  %34 = load ptr, ptr %33, align 8
  %35 = icmp ne ptr %34, null
  br i1 %35, label %36, label %40

36:                                               ; preds = %31
  %37 = load ptr, ptr %2, align 8
  %38 = getelementptr inbounds nuw %struct.IndexScanDescData, ptr %37, i32 0, i32 19
  %39 = load ptr, ptr %38, align 8
  call void @table_index_fetch_reset(ptr noundef %39)
  br label %40

40:                                               ; preds = %36, %31
  %41 = load ptr, ptr %2, align 8
  %42 = getelementptr inbounds nuw %struct.IndexScanDescData, ptr %41, i32 0, i32 9
  store i8 0, ptr %42, align 2
  %43 = load ptr, ptr %2, align 8
  %44 = getelementptr inbounds nuw %struct.IndexScanDescData, ptr %43, i32 0, i32 18
  store i8 0, ptr %44, align 2
  %45 = load ptr, ptr %2, align 8
  %46 = getelementptr inbounds nuw %struct.IndexScanDescData, ptr %45, i32 0, i32 1
  %47 = load ptr, ptr %46, align 8
  %48 = getelementptr inbounds nuw %struct.RelationData, ptr %47, i32 0, i32 51
  %49 = load ptr, ptr %48, align 8
  %50 = getelementptr inbounds nuw %struct.IndexAmRoutine, ptr %49, i32 0, i32 42
  %51 = load ptr, ptr %50, align 8
  %52 = load ptr, ptr %2, align 8
  call void %51(ptr noundef %52)
  ret void
}