; Function Attrs: nounwind uwtable
define dso_local void @index_restrpos(ptr noundef %0) local_unnamed_addr #0 {
  %2 = getelementptr inbounds nuw i8, ptr %0, i64 8
  %3 = load ptr, ptr %2, align 8
  %4 = getelementptr inbounds nuw i8, ptr %3, i64 352
  %5 = load ptr, ptr %4, align 8
  %6 = getelementptr inbounds nuw i8, ptr %5, i64 192
  %7 = load ptr, ptr %6, align 8
  %8 = icmp eq ptr %7, null
  br i1 %8, label %9, label %16

9:                                                ; preds = %1
  %10 = tail call zeroext i1 @errstart_cold(i32 noundef 21, ptr noundef null) #8
  tail call void @llvm.assume(i1 %10)
  %11 = load ptr, ptr %2, align 8
  %12 = getelementptr inbounds nuw i8, ptr %11, i64 56
  %13 = load ptr, ptr %12, align 8
  %14 = getelementptr inbounds nuw i8, ptr %13, i64 4
  %15 = tail call i32 (ptr, ...) @errmsg_internal(ptr noundef nonnull @.str.2, ptr noundef nonnull @.str.7, ptr noundef nonnull %14) #7
  tail call void @errfinish(ptr noundef nonnull @.str.1, i32 noundef 437, ptr noundef nonnull @__func__.index_restrpos) #7
  unreachable

16:                                               ; preds = %1
  %17 = getelementptr inbounds nuw i8, ptr %0, i64 104
  %18 = load ptr, ptr %17, align 8
  %.not = icmp eq ptr %18, null
  br i1 %.not, label %25, label %19

19:                                               ; preds = %16
  %20 = load ptr, ptr %18, align 8
  %21 = getelementptr inbounds nuw i8, ptr %20, i64 320
  %22 = load ptr, ptr %21, align 8
  %23 = getelementptr inbounds nuw i8, ptr %22, i64 96
  %24 = load ptr, ptr %23, align 8
  tail call void %24(ptr noundef nonnull %18) #7
  %.pre = load ptr, ptr %2, align 8
  br label %25

25:                                               ; preds = %19, %16
  %26 = phi ptr [ %.pre, %19 ], [ %3, %16 ]
  %27 = getelementptr inbounds nuw i8, ptr %0, i64 50
  store i8 0, ptr %27, align 2
  %28 = getelementptr inbounds nuw i8, ptr %0, i64 102
  store i8 0, ptr %28, align 2
  %29 = getelementptr inbounds nuw i8, ptr %26, i64 352
  %30 = load ptr, ptr %29, align 8
  %31 = getelementptr inbounds nuw i8, ptr %30, i64 192
  %32 = load ptr, ptr %31, align 8
  tail call void %32(ptr noundef nonnull %0) #7
  ret void
}